target datalayout = "e-m:e-p270:32:32-p271:32:32-p272:64:64-i64:64-i128:128-f80:128-n8:16:32:64-S128"
target triple = "x86_64-pc-linux-gnu"

%"class.std::__cxx11::basic_string" = type { %"struct.std::__cxx11::basic_string<char>::_Alloc_hider", i64, %union.anon }
%"struct.std::__cxx11::basic_string<char>::_Alloc_hider" = type { ptr }
%union.anon = type { i64, [8 x i8] }
%"class.arrow::Status" = type { ptr }
%"struct.arrow::Status::State" = type { i8, i8, %"class.std::__cxx11::basic_string", %"class.std::shared_ptr.137" }
%"class.std::shared_ptr.137" = type { %"class.std::__shared_ptr.138" }
%"class.std::__shared_ptr.138" = type { ptr, %"class.std::__shared_count" }
%"class.std::__shared_count" = type { ptr }
%"class.arrow::Result.9" = type { %"class.arrow::Status", %"class.arrow::internal::AlignedStorage.12" }
%"class.arrow::internal::AlignedStorage.12" = type { [8 x i8] }
%"class.arrow::Result.17" = type { %"class.arrow::Status", %"class.arrow::internal::AlignedStorage.20" }
%"class.arrow::internal::AlignedStorage.20" = type { [8 x i8] }

; Function Attrs: mustprogress nounwind uwtable
define linkonce_odr noundef ptr @_ZSt7launderIPKN5arrow7compute19FunctionOptionsTypeEEPT_S6_(ptr noundef %0) #0 comdat {
  %2 = alloca ptr, align 8
  store ptr %0, ptr %2, align 8, !tbaa !513
  %3 = load ptr, ptr %2, align 8, !tbaa !513
  ret ptr %3
}

; Function Attrs: mustprogress nounwind uwtable
define linkonce_odr void @_ZN5arrow4util18EqualityComparableINS_6StatusEED2Ev(ptr noundef nonnull align 1 dereferenceable(1) %0) unnamed_addr #0 comdat align 2 {
  %2 = alloca ptr, align 8
  store ptr %0, ptr %2, align 8, !tbaa !292
  ret void
}

; Function Attrs: mustprogress nounwind uwtable
define linkonce_odr void @_ZN5arrow4util19ToStringOstreamableINS_6StatusEED2Ev(ptr noundef nonnull align 1 dereferenceable(1) %0) unnamed_addr #0 comdat align 2 {
  %2 = alloca ptr, align 8
  store ptr %0, ptr %2, align 8, !tbaa !290
  ret void
}

; Function Attrs: mustprogress nounwind uwtable
define linkonce_odr void @_ZN5arrow8internal14AlignedStorageIPKNS_7compute19FunctionOptionsTypeEE7destroyEv(ptr noundef nonnull align 8 dereferenceable(8) %0) #0 comdat align 2 {
  %2 = alloca ptr, align 8
  store ptr %0, ptr %2, align 8, !tbaa !511
  ret void
}

; Function Attrs: mustprogress nounwind uwtable
define linkonce_odr noundef ptr @_ZN5arrow8internal14AlignedStorageIPKNS_7compute19FunctionOptionsTypeEE3getEv(ptr noundef nonnull align 8 dereferenceable(8) %0) #0 comdat align 2 {
  %2 = alloca ptr, align 8
  store ptr %0, ptr %2, align 8, !tbaa !511
  %3 = load ptr, ptr %2, align 8
  %4 = getelementptr inbounds nuw %"class.arrow::internal::AlignedStorage.20", ptr %3, i32 0, i32 0
  %5 = call noundef ptr @_ZSt7launderIPKN5arrow7compute19FunctionOptionsTypeEEPT_S6_(ptr noundef %4) #9
  ret ptr %5
}

; Function Attrs: mustprogress nounwind uwtable
define linkonce_odr void @_ZN5arrow4util18EqualityComparableINS_6ResultIPKNS_7compute19FunctionOptionsTypeEEEED2Ev(ptr noundef nonnull align 1 dereferenceable(1) %0) unnamed_addr #0 comdat align 2 {
  %2 = alloca ptr, align 8
  store ptr %0, ptr %2, align 8, !tbaa !509
  ret void
}

; Function Attrs: mustprogress nounwind uwtable
define linkonce_odr void @_ZN5arrow6StatusD2Ev(ptr noundef nonnull align 8 dereferenceable(8) %0) unnamed_addr #0 comdat align 2 {
  %2 = alloca ptr, align 8
  store ptr %0, ptr %2, align 8, !tbaa !65
  %3 = load ptr, ptr %2, align 8
  %4 = getelementptr inbounds nuw %"class.arrow::Status", ptr %3, i32 0, i32 0
  %5 = load ptr, ptr %4, align 8, !tbaa !67
  %6 = icmp ne ptr %5, null
  %7 = xor i1 %6, true
  %8 = xor i1 %7, true
  %9 = zext i1 %8 to i64
  %10 = call i64 @llvm.expect.i64(i64 %9, i64 0)
  %11 = icmp ne i64 %10, 0
  br i1 %11, label %12, label %20

12:                                               ; preds = %1
  %13 = getelementptr inbounds nuw %"class.arrow::Status", ptr %3, i32 0, i32 0
  %14 = load ptr, ptr %13, align 8, !tbaa !67
  %15 = getelementptr inbounds nuw %"struct.arrow::Status::State", ptr %14, i32 0, i32 1
  %16 = load i8, ptr %15, align 1, !tbaa !70, !range !81, !noundef !82
  %17 = trunc i8 %16 to i1
  br i1 %17, label %19, label %18

18:                                               ; preds = %12
  call void @_ZN5arrow6Status11DeleteStateEv(ptr noundef nonnull align 8 dereferenceable(8) %3) #9
  br label %19

19:                                               ; preds = %18, %12
  br label %20

20:                                               ; preds = %19, %1
  call void @_ZN5arrow4util19ToStringOstreamableINS_6StatusEED2Ev(ptr noundef nonnull align 1 dereferenceable(1) %3) #9
  call void @_ZN5arrow4util18EqualityComparableINS_6StatusEED2Ev(ptr noundef nonnull align 1 dereferenceable(1) %3) #9
  ret void
}

; Function Attrs: mustprogress nounwind uwtable
define linkonce_odr void @_ZN5arrow6ResultIPKNS_7compute19FunctionOptionsTypeEE7DestroyEv(ptr noundef nonnull align 8 dereferenceable(16) %0) #0 comdat align 2 {
  %2 = alloca ptr, align 8
  store ptr %0, ptr %2, align 8, !tbaa !91
  %3 = load ptr, ptr %2, align 8
  %4 = getelementptr inbounds nuw %"class.arrow::Result.17", ptr %3, i32 0, i32 0
  %5 = call noundef zeroext i1 @_ZNK5arrow6Status2okEv(ptr noundef nonnull align 8 dereferenceable(8) %4)
  %6 = xor i1 %5, true
  %7 = xor i1 %6, true
  %8 = zext i1 %7 to i64
  %9 = call i64 @llvm.expect.i64(i64 %8, i64 1)
  %10 = icmp ne i64 %9, 0
  br i1 %10, label %11, label %13

11:                                               ; preds = %1
  %12 = getelementptr inbounds nuw %"class.arrow::Result.17", ptr %3, i32 0, i32 1
  call void @_ZN5arrow8internal14AlignedStorageIPKNS_7compute19FunctionOptionsTypeEE7destroyEv(ptr noundef nonnull align 8 dereferenceable(8) %12) #9
  br label %13

13:                                               ; preds = %11, %1
  ret void
}

; Function Attrs: mustprogress nounwind uwtable
define linkonce_odr noundef ptr @_ZN5arrow6ResultIPKNS_7compute19FunctionOptionsTypeEE15MoveValueUnsafeEv(ptr noundef nonnull align 8 dereferenceable(16) %0) #0 comdat align 2 {
  %2 = alloca ptr, align 8
  store ptr %0, ptr %2, align 8, !tbaa !91
  %3 = load ptr, ptr %2, align 8
  %4 = getelementptr inbounds nuw %"class.arrow::Result.17", ptr %3, i32 0, i32 1
  %5 = call noundef ptr @_ZN5arrow8internal14AlignedStorageIPKNS_7compute19FunctionOptionsTypeEE3getEv(ptr noundef nonnull align 8 dereferenceable(8) %4) #9
  %6 = load ptr, ptr %5, align 8, !tbaa !53
  ret ptr %6
}

; Function Attrs: mustprogress nounwind uwtable
define linkonce_odr noundef zeroext i1 @_ZNK5arrow6Status2okEv(ptr noundef nonnull align 8 dereferenceable(8) %0) #0 comdat align 2 {
  %2 = alloca ptr, align 8
  store ptr %0, ptr %2, align 8, !tbaa !65
  %3 = load ptr, ptr %2, align 8
  %4 = getelementptr inbounds nuw %"class.arrow::Status", ptr %3, i32 0, i32 0
  %5 = load ptr, ptr %4, align 8, !tbaa !67
  %6 = icmp eq ptr %5, null
  ret i1 %6
}

; Function Attrs: mustprogress nounwind uwtable
define linkonce_odr void @_ZN5arrow6ResultIPKNS_7compute19FunctionOptionsTypeEED2Ev(ptr noundef nonnull align 8 dereferenceable(16) %0) unnamed_addr #0 comdat align 2 {
  %2 = alloca ptr, align 8
  store ptr %0, ptr %2, align 8, !tbaa !91
  %3 = load ptr, ptr %2, align 8
  call void @_ZN5arrow6ResultIPKNS_7compute19FunctionOptionsTypeEE7DestroyEv(ptr noundef nonnull align 8 dereferenceable(16) %3) #9
  %4 = getelementptr inbounds nuw %"class.arrow::Result.17", ptr %3, i32 0, i32 0
  call void @_ZN5arrow6StatusD2Ev(ptr noundef nonnull align 8 dereferenceable(8) %4) #9
  call void @_ZN5arrow4util18EqualityComparableINS_6ResultIPKNS_7compute19FunctionOptionsTypeEEEED2Ev(ptr noundef nonnull align 1 dereferenceable(1) %3) #9
  ret void
}

; Function Attrs: mustprogress uwtable
define linkonce_odr noundef ptr @_ZNO5arrow6ResultIPKNS_7compute19FunctionOptionsTypeEE11ValueUnsafeEv(ptr noundef nonnull align 8 dereferenceable(16) %0) #1 comdat align 2 {
  %2 = alloca ptr, align 8
  store ptr %0, ptr %2, align 8, !tbaa !91
  %3 = load ptr, ptr %2, align 8
  %4 = call noundef ptr @_ZN5arrow6ResultIPKNS_7compute19FunctionOptionsTypeEE15MoveValueUnsafeEv(ptr noundef nonnull align 8 dereferenceable(16) %3)
  ret ptr %4
}

; Function Attrs: mustprogress nounwind uwtable
define linkonce_odr noundef nonnull align 8 dereferenceable(8) ptr @_ZNKR5arrow6ResultIPKNS_7compute19FunctionOptionsTypeEE6statusEv(ptr noundef nonnull align 8 dereferenceable(16) %0) #0 comdat align 2 {
  %2 = alloca ptr, align 8
  store ptr %0, ptr %2, align 8, !tbaa !91
  %3 = load ptr, ptr %2, align 8
  %4 = getelementptr inbounds nuw %"class.arrow::Result.17", ptr %3, i32 0, i32 0
  ret ptr %4
}

; Function Attrs: mustprogress uwtable
define linkonce_odr noundef zeroext i1 @_ZNK5arrow6ResultIPKNS_7compute19FunctionOptionsTypeEE2okEv(ptr noundef nonnull align 8 dereferenceable(16) %0) #1 comdat align 2 {
  %2 = alloca ptr, align 8
  store ptr %0, ptr %2, align 8, !tbaa !91
  %3 = load ptr, ptr %2, align 8
  %4 = getelementptr inbounds nuw %"class.arrow::Result.17", ptr %3, i32 0, i32 0
  %5 = call noundef zeroext i1 @_ZNK5arrow6Status2okEv(ptr noundef nonnull align 8 dereferenceable(8) %4)
  ret i1 %5
}

; Function Attrs: mustprogress uwtable
define void @_ZN5arrow7compute15FunctionOptions11DeserializeERKNSt7__cxx1112basic_stringIcSt11char_traitsIcESaIcEEERKNS_6BufferE(ptr dead_on_unwind noalias writable sret(%"class.arrow::Result.9") align 8 %0, ptr noundef nonnull align 8 dereferenceable(32) %1, ptr noundef nonnull align 8 dereferenceable(80) %2) #1 align 2 personality ptr @__gxx_personality_v0 {
  %4 = alloca ptr, align 8
  %5 = alloca ptr, align 8
  %6 = alloca ptr, align 8
  %7 = alloca ptr, align 8
  %8 = alloca %"class.arrow::Result.17", align 8
  %9 = alloca ptr, align 8
  %10 = alloca i32, align 4
  %11 = alloca i32, align 4
  %12 = alloca ptr, align 8
  store ptr %0, ptr %4, align 8
  store ptr %1, ptr %5, align 8, !tbaa !89
  store ptr %2, ptr %6, align 8, !tbaa !83
  call void @llvm.lifetime.start.p0(i64 8, ptr %7) #9
  call void @llvm.lifetime.start.p0(i64 16, ptr %8) #9
  %13 = call noundef ptr @_ZN5arrow7compute19GetFunctionRegistryEv()
  %14 = load ptr, ptr %5, align 8, !tbaa !89
  call void @_ZNK5arrow7compute16FunctionRegistry22GetFunctionOptionsTypeERKNSt7__cxx1112basic_stringIcSt11char_traitsIcESaIcEEE(ptr dead_on_unwind writable sret(%"class.arrow::Result.17") align 8 %8, ptr noundef nonnull align 8 dereferenceable(8) %13, ptr noundef nonnull align 8 dereferenceable(32) %14)
  store ptr %8, ptr %7, align 8, !tbaa !91
  br label %15

15:                                               ; preds = %3
  %16 = load ptr, ptr %7, align 8, !tbaa !91
  %17 = invoke noundef zeroext i1 @_ZNK5arrow6ResultIPKNS_7compute19FunctionOptionsTypeEE2okEv(ptr noundef nonnull align 8 dereferenceable(16) %16)
          to label %18 unwind label %29

18:                                               ; preds = %15
  %19 = xor i1 %17, true
  %20 = xor i1 %19, true
  %21 = xor i1 %20, true
  %22 = zext i1 %21 to i64
  %23 = call i64 @llvm.expect.i64(i64 %22, i64 0)
  %24 = icmp ne i64 %23, 0
  br i1 %24, label %25, label %33

25:                                               ; preds = %18
  %26 = load ptr, ptr %7, align 8, !tbaa !91
  %27 = invoke noundef nonnull align 8 dereferenceable(8) ptr @_ZNKR5arrow6ResultIPKNS_7compute19FunctionOptionsTypeEE6statusEv(ptr noundef nonnull align 8 dereferenceable(16) %26)
          to label %28 unwind label %29

28:                                               ; preds = %25
  call void @_ZN5arrow6ResultISt10unique_ptrINS_7compute15FunctionOptionsESt14default_deleteIS3_EEEC2ERKNS_6StatusE(ptr noundef nonnull align 8 dereferenceable(16) %0, ptr noundef nonnull align 8 dereferenceable(8) %27) #9
  store i32 1, ptr %11, align 4
  br label %49

29:                                               ; preds = %25, %15
  %30 = landingpad { ptr, i32 }
          cleanup
  %31 = extractvalue { ptr, i32 } %30, 0
  store ptr %31, ptr %9, align 8
  %32 = extractvalue { ptr, i32 } %30, 1
  store i32 %32, ptr %10, align 4
  br label %50

33:                                               ; preds = %18
  br label %34

34:                                               ; preds = %33
  br label %35

35:                                               ; preds = %34
  call void @llvm.lifetime.start.p0(i64 8, ptr %12) #9
  %36 = load ptr, ptr %7, align 8, !tbaa !91
  %37 = invoke noundef ptr @_ZNO5arrow6ResultIPKNS_7compute19FunctionOptionsTypeEE11ValueUnsafeEv(ptr noundef nonnull align 8 dereferenceable(16) %36)
          to label %38 unwind label %45

38:                                               ; preds = %35
  store ptr %37, ptr %12, align 8, !tbaa !53
  %39 = load ptr, ptr %12, align 8, !tbaa !53
  %40 = load ptr, ptr %6, align 8, !tbaa !83
  %41 = load ptr, ptr %39, align 8, !tbaa !57
  %42 = getelementptr inbounds ptr, ptr %41, i64 6
  %43 = load ptr, ptr %42, align 8
  invoke void %43(ptr dead_on_unwind writable sret(%"class.arrow::Result.9") align 8 %0, ptr noundef nonnull align 8 dereferenceable(8) %39, ptr noundef nonnull align 8 dereferenceable(80) %40)
          to label %44 unwind label %45

44:                                               ; preds = %38
  store i32 1, ptr %11, align 4
  call void @llvm.lifetime.end.p0(i64 8, ptr %12) #9
  br label %49

45:                                               ; preds = %38, %35
  %46 = landingpad { ptr, i32 }
          cleanup
  %47 = extractvalue { ptr, i32 } %46, 0
  store ptr %47, ptr %9, align 8
  %48 = extractvalue { ptr, i32 } %46, 1
  store i32 %48, ptr %10, align 4
  call void @llvm.lifetime.end.p0(i64 8, ptr %12) #9
  br label %50

49:                                               ; preds = %44, %28
  call void @_ZN5arrow6ResultIPKNS_7compute19FunctionOptionsTypeEED2Ev(ptr noundef nonnull align 8 dereferenceable(16) %8) #9
  call void @llvm.lifetime.end.p0(i64 16, ptr %8) #9
  call void @llvm.lifetime.end.p0(i64 8, ptr %7) #9
  ret void

50:                                               ; preds = %45, %29
  call void @_ZN5arrow6ResultIPKNS_7compute19FunctionOptionsTypeEED2Ev(ptr noundef nonnull align 8 dereferenceable(16) %8) #9
  call void @llvm.lifetime.end.p0(i64 16, ptr %8) #9
  call void @llvm.lifetime.end.p0(i64 8, ptr %7) #9
  br label %51

51:                                               ; preds = %50
  %52 = load ptr, ptr %9, align 8
  %53 = load i32, ptr %10, align 4
  %54 = insertvalue { ptr, i32 } poison, ptr %52, 0
  %55 = insertvalue { ptr, i32 } %54, i32 %53, 1
  resume { ptr, i32 } %55
}