; Function Attrs: mustprogress uwtable
define void @_ZN5arrow7compute15FunctionOptions11DeserializeERKNSt7__cxx1112basic_stringIcSt11char_traitsIcESaIcEEERKNS_6BufferE(ptr dead_on_unwind noalias writable sret(%"class.arrow::Result.9") align 8 %0, ptr noundef nonnull align 8 dereferenceable(32) %1, ptr noundef nonnull align 8 dereferenceable(80) %2) local_unnamed_addr #1 align 2 personality ptr @__gxx_personality_v0 {
  %4 = alloca %"class.arrow::Result.17", align 8
  call void @llvm.lifetime.start.p0(i64 16, ptr nonnull %4) #23
  %5 = tail call noundef ptr @_ZN5arrow7compute19GetFunctionRegistryEv()
  call void @_ZNK5arrow7compute16FunctionRegistry22GetFunctionOptionsTypeERKNSt7__cxx1112basic_stringIcSt11char_traitsIcESaIcEEE(ptr dead_on_unwind nonnull writable sret(%"class.arrow::Result.17") align 8 %4, ptr noundef nonnull align 8 dereferenceable(8) %5, ptr noundef nonnull align 8 dereferenceable(32) %1)
  %6 = load ptr, ptr %4, align 8, !tbaa !47
  %7 = icmp eq ptr %6, null
  br i1 %7, label %9, label %8, !prof !50

8:                                                ; preds = %3
  call void @_ZN5arrow6ResultISt10unique_ptrINS_7compute15FunctionOptionsESt14default_deleteIS3_EEEC2ERKNS_6StatusE(ptr noundef nonnull align 8 dereferenceable(16) %0, ptr noundef nonnull align 8 dereferenceable(8) %4) #23
  br label %18

9:                                                ; preds = %3
  %10 = getelementptr inbounds nuw i8, ptr %4, i64 8
  %11 = load ptr, ptr %10, align 8, !tbaa !71
  %12 = load ptr, ptr %11, align 8, !tbaa !32
  %13 = getelementptr inbounds nuw i8, ptr %12, i64 48
  %14 = load ptr, ptr %13, align 8
  invoke void %14(ptr dead_on_unwind writable sret(%"class.arrow::Result.9") align 8 %0, ptr noundef nonnull align 8 dereferenceable(8) %11, ptr noundef nonnull align 8 dereferenceable(80) %2)
          to label %18 unwind label %15

15:                                               ; preds = %9
  %16 = landingpad { ptr, i32 }
          cleanup
  %17 = load ptr, ptr %4, align 8, !tbaa !47
  %.not.i.i9 = icmp eq ptr %17, null
  br i1 %.not.i.i9, label %_ZN5arrow6ResultIPKNS_7compute19FunctionOptionsTypeEED2Ev.exit10, label %25, !prof !50

18:                                               ; preds = %9, %8
  %19 = load ptr, ptr %4, align 8, !tbaa !47
  %.not.i.i = icmp eq ptr %19, null
  br i1 %.not.i.i, label %_ZN5arrow6ResultIPKNS_7compute19FunctionOptionsTypeEED2Ev.exit, label %20, !prof !50

20:                                               ; preds = %18
  %21 = getelementptr inbounds nuw i8, ptr %19, i64 1
  %22 = load i8, ptr %21, align 1, !tbaa !51, !range !60, !noundef !61
  %23 = trunc nuw i8 %22 to i1
  br i1 %23, label %_ZN5arrow6ResultIPKNS_7compute19FunctionOptionsTypeEED2Ev.exit, label %24

24:                                               ; preds = %20
  call void @_ZN5arrow6Status11DeleteStateEv(ptr noundef nonnull align 8 dereferenceable(16) %4) #23
  br label %_ZN5arrow6ResultIPKNS_7compute19FunctionOptionsTypeEED2Ev.exit

_ZN5arrow6ResultIPKNS_7compute19FunctionOptionsTypeEED2Ev.exit: ; preds = %18, %20, %24
  call void @llvm.lifetime.end.p0(i64 16, ptr nonnull %4) #23
  ret void

25:                                               ; preds = %15
  %26 = getelementptr inbounds nuw i8, ptr %17, i64 1
  %27 = load i8, ptr %26, align 1, !tbaa !51, !range !60, !noundef !61
  %28 = trunc nuw i8 %27 to i1
  br i1 %28, label %_ZN5arrow6ResultIPKNS_7compute19FunctionOptionsTypeEED2Ev.exit10, label %29

29:                                               ; preds = %25
  call void @_ZN5arrow6Status11DeleteStateEv(ptr noundef nonnull align 8 dereferenceable(16) %4) #23
  br label %_ZN5arrow6ResultIPKNS_7compute19FunctionOptionsTypeEED2Ev.exit10

_ZN5arrow6ResultIPKNS_7compute19FunctionOptionsTypeEED2Ev.exit10: ; preds = %15, %25, %29
  call void @llvm.lifetime.end.p0(i64 16, ptr nonnull %4) #23
  resume { ptr, i32 } %16
}